; Function Attrs: alwaysinline norecurse nounwind uwtable
define internal void @_ZNK4ncnn14Interp_x86_fma7forwardERKSt6vectorINS_3MatESaIS2_EERS4_RKNS_6OptionE.omp_outlined.4(ptr noalias noundef readonly captures(none) %0, ptr noalias readnone captures(none) %1, ptr noundef nonnull readonly align 4 captures(none) dereferenceable(4) %2, ptr noundef nonnull readonly align 8 captures(none) dereferenceable(72) %3, ptr noundef nonnull readonly align 8 captures(none) dereferenceable(72) %4, ptr noundef nonnull readonly align 8 captures(none) dereferenceable(8) %5, ptr noundef nonnull readonly align 4 captures(none) dereferenceable(4) %6, ptr noundef nonnull readonly align 8 captures(none) dereferenceable(8) %7) #5 personality ptr @__gxx_personality_v0 {
  %9 = alloca i32, align 4
  %10 = alloca i32, align 4
  %11 = alloca i32, align 4
  %12 = alloca i32, align 4
  %13 = load i32, ptr %2, align 4, !tbaa !16
  %14 = icmp sgt i32 %13, 0
  br i1 %14, label %15, label %70

15:                                               ; preds = %8
  %16 = add nsw i32 %13, -1
  call void @llvm.lifetime.start.p0(i64 4, ptr nonnull %9) #6
  store i32 0, ptr %9, align 4, !tbaa !16
  call void @llvm.lifetime.start.p0(i64 4, ptr nonnull %10) #6
  store i32 %16, ptr %10, align 4, !tbaa !16
  call void @llvm.lifetime.start.p0(i64 4, ptr nonnull %11) #6
  store i32 1, ptr %11, align 4, !tbaa !16
  call void @llvm.lifetime.start.p0(i64 4, ptr nonnull %12) #6
  store i32 0, ptr %12, align 4, !tbaa !16
  %17 = load i32, ptr %0, align 4, !tbaa !16
  call void @__kmpc_for_static_init_4(ptr nonnull @1, i32 %17, i32 34, ptr nonnull %12, ptr nonnull %9, ptr nonnull %10, ptr nonnull %11, i32 1, i32 1)
  %18 = load i32, ptr %10, align 4, !tbaa !16
  %19 = call i32 @llvm.smin.i32(i32 %18, i32 %16)
  store i32 %19, ptr %10, align 4, !tbaa !16
  %20 = load i32, ptr %9, align 4, !tbaa !16
  %.not41 = icmp sgt i32 %20, %19
  br i1 %.not41, label %._crit_edge45, label %.lr.ph44

.lr.ph44:                                         ; preds = %15
  %21 = getelementptr inbounds nuw i8, ptr %3, i64 44
  %22 = getelementptr inbounds nuw i8, ptr %3, i64 16
  %23 = getelementptr inbounds nuw i8, ptr %4, i64 44
  %24 = getelementptr inbounds nuw i8, ptr %4, i64 16
  %25 = load i32, ptr %6, align 4, !tbaa !16
  %26 = icmp sgt i32 %25, 0
  br i1 %26, label %.lr.ph44.split.preheader, label %._crit_edge45

.lr.ph44.split.preheader:                         ; preds = %.lr.ph44
  %27 = sext i32 %20 to i64
  %28 = add nsw i32 %19, 1
  br label %.lr.ph44.split

.lr.ph44.split:                                   ; preds = %.lr.ph44.split.preheader, %._crit_edge
  %29 = phi i32 [ %25, %.lr.ph44.split.preheader ], [ %46, %._crit_edge ]
  %indvars.iv48 = phi i64 [ %27, %.lr.ph44.split.preheader ], [ %indvars.iv.next49, %._crit_edge ]
  %30 = load ptr, ptr %3, align 8, !tbaa !25
  %31 = load i32, ptr %21, align 4, !tbaa !17
  %32 = sext i32 %31 to i64
  %33 = mul nsw i64 %indvars.iv48, %32
  %34 = load i64, ptr %22, align 8, !tbaa !20
  %35 = mul i64 %33, %34
  %36 = getelementptr inbounds nuw i8, ptr %30, i64 %35
  %37 = icmp sgt i32 %29, 0
  br i1 %37, label %.lr.ph.preheader, label %._crit_edge

.lr.ph.preheader:                                 ; preds = %.lr.ph44.split
  %38 = load ptr, ptr %5, align 8, !tbaa !51
  %39 = load ptr, ptr %4, align 8, !tbaa !25
  %40 = load i32, ptr %23, align 4, !tbaa !17
  %41 = sext i32 %40 to i64
  %42 = mul nsw i64 %indvars.iv48, %41
  %43 = load i64, ptr %24, align 8, !tbaa !20
  %44 = mul i64 %42, %43
  %45 = getelementptr inbounds nuw i8, ptr %39, i64 %44
  br label %.lr.ph

._crit_edge:                                      ; preds = %.lr.ph, %.lr.ph44.split
  %46 = phi i32 [ %29, %.lr.ph44.split ], [ %67, %.lr.ph ]
  %indvars.iv.next49 = add nsw i64 %indvars.iv48, 1
  %lftr.wideiv = trunc i64 %indvars.iv.next49 to i32
  %exitcond.not = icmp eq i32 %28, %lftr.wideiv
  br i1 %exitcond.not, label %._crit_edge45, label %.lr.ph44.split, !llvm.loop !77

.lr.ph:                                           ; preds = %.lr.ph.preheader, %.lr.ph
  %indvars.iv = phi i64 [ 0, %.lr.ph.preheader ], [ %indvars.iv.next, %.lr.ph ]
  %.03340 = phi ptr [ %45, %.lr.ph.preheader ], [ %66, %.lr.ph ]
  %.03439 = phi ptr [ %38, %.lr.ph.preheader ], [ %65, %.lr.ph ]
  %47 = load ptr, ptr %7, align 8, !tbaa !50
  %48 = getelementptr inbounds nuw i32, ptr %47, i64 %indvars.iv
  %49 = load i32, ptr %48, align 4, !tbaa !16
  %50 = shl nsw i32 %49, 3
  %51 = sext i32 %50 to i64
  %52 = getelementptr inbounds float, ptr %36, i64 %51
  %53 = load float, ptr %.03439, align 4, !tbaa !49
  %54 = insertelement <8 x float> poison, float %53, i64 0
  %55 = shufflevector <8 x float> %54, <8 x float> poison, <8 x i32> zeroinitializer
  %56 = getelementptr inbounds nuw i8, ptr %.03439, i64 4
  %57 = load float, ptr %56, align 4, !tbaa !49
  %58 = insertelement <8 x float> poison, float %57, i64 0
  %59 = shufflevector <8 x float> %58, <8 x float> poison, <8 x i32> zeroinitializer
  %60 = load <8 x float>, ptr %52, align 32, !tbaa !60
  %61 = getelementptr inbounds nuw i8, ptr %52, i64 32
  %62 = load <8 x float>, ptr %61, align 32, !tbaa !60
  %63 = fmul fast <8 x float> %60, %55
  %64 = call fast noundef <8 x float> @llvm.fma.v8f32(<8 x float> %62, <8 x float> %59, <8 x float> %63)
  store <8 x float> %64, ptr %.03340, align 32, !tbaa !60
  %65 = getelementptr inbounds nuw i8, ptr %.03439, i64 8
  %66 = getelementptr inbounds nuw i8, ptr %.03340, i64 32
  %indvars.iv.next = add nuw nsw i64 %indvars.iv, 1
  %67 = load i32, ptr %6, align 4, !tbaa !16
  %68 = sext i32 %67 to i64
  %69 = icmp slt i64 %indvars.iv.next, %68
  br i1 %69, label %.lr.ph, label %._crit_edge, !llvm.loop !78

._crit_edge45:                                    ; preds = %._crit_edge, %.lr.ph44, %15
  call void @__kmpc_for_static_fini(ptr nonnull @1, i32 %17)
  call void @llvm.lifetime.end.p0(i64 4, ptr nonnull %12) #6
  call void @llvm.lifetime.end.p0(i64 4, ptr nonnull %11) #6
  call void @llvm.lifetime.end.p0(i64 4, ptr nonnull %10) #6
  call void @llvm.lifetime.end.p0(i64 4, ptr nonnull %9) #6
  br label %70

70:                                               ; preds = %._crit_edge45, %8
  ret void
}